; Function Attrs: mustprogress nounwind uwtable
define internal void @_ZN6v8impl12_GLOBAL__N_115BufferFinalizerD0Ev(ptr noundef nonnull align 8 dereferenceable(40) %this) unnamed_addr #3 align 2 {
entry:
  store ptr getelementptr inbounds ({ [4 x ptr] }, ptr @_ZTVN6v8impl12_GLOBAL__N_115BufferFinalizerE, i64 0, i32 0, i64 2), ptr %this, align 8
  %env_.i = getelementptr inbounds i8, ptr %this, i64 8
  %0 = load ptr, ptr %env_.i, align 8
  %refs.i.i = getelementptr inbounds i8, ptr %0, i64 168
  %1 = load i32, ptr %refs.i.i, align 8
  %dec.i.i = add nsw i32 %1, -1
  store i32 %dec.i.i, ptr %refs.i.i, align 8
  %cmp.i.i = icmp eq i32 %dec.i.i, 0
  br i1 %cmp.i.i, label %if.then.i.i, label %_ZN6v8impl12_GLOBAL__N_115BufferFinalizerD2Ev.exit

if.then.i.i:                                      ; preds = %entry
  %vtable.i.i = load ptr, ptr %0, align 8
  %vfn.i.i = getelementptr inbounds i8, ptr %vtable.i.i, i64 32
  %2 = load ptr, ptr %vfn.i.i, align 8
  tail call void %2(ptr noundef nonnull align 8 dereferenceable(189) %0) #21
  br label %_ZN6v8impl12_GLOBAL__N_115BufferFinalizerD2Ev.exit

_ZN6v8impl12_GLOBAL__N_115BufferFinalizerD2Ev.exit: ; preds = %entry, %if.then.i.i
  tail call void @_ZdlPv(ptr noundef nonnull %this) #24
  ret void
}